; Function Attrs: mustprogress norecurse uwtable
define hidden noundef i32 @main(i32 noundef %0, ptr noundef readonly captures(none) %1) local_unnamed_addr #0 personality ptr @__gxx_personality_v0 {
  %3 = alloca %"class.std::map", align 8
  tail call void @CRYPTO_library_init()
  %.not = icmp eq i32 %0, 2
  br i1 %.not, label %8, label %4

4:                                                ; preds = %2
  %5 = load ptr, ptr @stderr, align 8, !tbaa !6
  %6 = load ptr, ptr %1, align 8, !tbaa !11
  %7 = tail call i32 (ptr, ptr, ...) @fprintf(ptr noundef %5, ptr noundef nonnull @.str, ptr noundef %6) #19
  br label %24

8:                                                ; preds = %2
  call void @llvm.lifetime.start.p0(i64 48, ptr nonnull %3) #20
  %9 = getelementptr inbounds nuw i8, ptr %3, i64 8
  store i32 0, ptr %9, align 8, !tbaa !13
  %10 = getelementptr inbounds nuw i8, ptr %3, i64 16
  store ptr null, ptr %10, align 8, !tbaa !19
  %11 = getelementptr inbounds nuw i8, ptr %3, i64 24
  store ptr %9, ptr %11, align 8, !tbaa !20
  %12 = getelementptr inbounds nuw i8, ptr %3, i64 32
  store ptr %9, ptr %12, align 8, !tbaa !21
  %13 = getelementptr inbounds nuw i8, ptr %3, i64 40
  store i64 0, ptr %13, align 8, !tbaa !22
  %14 = getelementptr inbounds nuw i8, ptr %1, i64 8
  %15 = load ptr, ptr %14, align 8, !tbaa !11
  %16 = invoke noundef i32 @_Z12FileTestMainPFbP8FileTestPvES1_PKc(ptr noundef nonnull @_ZL7TestEVPP8FileTestPv, ptr noundef nonnull %3, ptr noundef %15)
          to label %17 unwind label %22

17:                                               ; preds = %8
  %18 = load ptr, ptr %10, align 8, !tbaa !19
  invoke void @_ZNSt8_Rb_treeINSt7__cxx1112basic_stringIcSt11char_traitsIcESaIcEEESt4pairIKS5_St10unique_ptrI11evp_pkey_st14OpenSSLDeleterIS9_XadL_Z13EVP_PKEY_freeEEEEESt10_Select1stISD_ESt4lessIS5_ESaISD_EE8_M_eraseEPSt13_Rb_tree_nodeISD_E(ptr noundef nonnull align 8 dereferenceable(48) %3, ptr noundef %18)
          to label %_ZNSt3mapINSt7__cxx1112basic_stringIcSt11char_traitsIcESaIcEEESt10unique_ptrI11evp_pkey_st14OpenSSLDeleterIS7_XadL_Z13EVP_PKEY_freeEEEESt4lessIS5_ESaISt4pairIKS5_SA_EEED2Ev.exit unwind label %19

19:                                               ; preds = %17
  %20 = landingpad { ptr, i32 }
          catch ptr null
  %21 = extractvalue { ptr, i32 } %20, 0
  call void @__clang_call_terminate(ptr %21) #21
  unreachable

_ZNSt3mapINSt7__cxx1112basic_stringIcSt11char_traitsIcESaIcEEESt10unique_ptrI11evp_pkey_st14OpenSSLDeleterIS7_XadL_Z13EVP_PKEY_freeEEEESt4lessIS5_ESaISt4pairIKS5_SA_EEED2Ev.exit: ; preds = %17
  call void @llvm.lifetime.end.p0(i64 48, ptr nonnull %3) #20
  br label %24

22:                                               ; preds = %8
  %23 = landingpad { ptr, i32 }
          cleanup
  call void @_ZNSt3mapINSt7__cxx1112basic_stringIcSt11char_traitsIcESaIcEEESt10unique_ptrI11evp_pkey_st14OpenSSLDeleterIS7_XadL_Z13EVP_PKEY_freeEEEESt4lessIS5_ESaISt4pairIKS5_SA_EEED2Ev(ptr noundef nonnull align 8 dereferenceable(48) %3) #20
  call void @llvm.lifetime.end.p0(i64 48, ptr nonnull %3) #20
  resume { ptr, i32 } %23

24:                                               ; preds = %_ZNSt3mapINSt7__cxx1112basic_stringIcSt11char_traitsIcESaIcEEESt10unique_ptrI11evp_pkey_st14OpenSSLDeleterIS7_XadL_Z13EVP_PKEY_freeEEEESt4lessIS5_ESaISt4pairIKS5_SA_EEED2Ev.exit, %4
  %.0 = phi i32 [ 1, %4 ], [ %16, %_ZNSt3mapINSt7__cxx1112basic_stringIcSt11char_traitsIcESaIcEEESt10unique_ptrI11evp_pkey_st14OpenSSLDeleterIS7_XadL_Z13EVP_PKEY_freeEEEESt4lessIS5_ESaISt4pairIKS5_SA_EEED2Ev.exit ]
  ret i32 %.0
}